; Function Attrs: mustprogress uwtable
define hidden void @_ZN4cvc58internal6theory11quantifiers6TermDb15setTermInactiveENS0_12NodeTemplateILb1EEE(ptr noundef nonnull align 8 dereferenceable(1072) %this, ptr noundef nonnull %n) local_unnamed_addr #3 align 2 {
entry:
  %d_inactive_map = getelementptr inbounds i8, ptr %this, i64 576
  %call = tail call noundef nonnull align 8 dereferenceable(80) ptr @_ZN4cvc57context9CDHashMapINS_8internal12NodeTemplateILb1EEEbSt4hashIS4_EEixERKS4_(ptr noundef nonnull align 8 dereferenceable(112) %d_inactive_map, ptr noundef nonnull align 8 dereferenceable(8) %n)
  %d_pScope.i.i.i = getelementptr inbounds i8, ptr %call, i64 8
  %0 = load ptr, ptr %d_pScope.i.i.i, align 8
  %1 = load ptr, ptr %0, align 8
  %_M_finish.i.i.i.i.i.i.i = getelementptr inbounds i8, ptr %1, i64 16
  %2 = load ptr, ptr %_M_finish.i.i.i.i.i.i.i, align 8
  %add.ptr.i.i.i.i.i.i.i = getelementptr inbounds i8, ptr %2, i64 -8
  %3 = load ptr, ptr %add.ptr.i.i.i.i.i.i.i, align 8
  %cmp.i.i.i.i = icmp eq ptr %3, %0
  br i1 %cmp.i.i.i.i, label %_ZN4cvc57context11CDOhash_mapINS_8internal12NodeTemplateILb1EEEbSt4hashIS4_EEaSERKb.exit, label %if.then.i.i.i

if.then.i.i.i:                                    ; preds = %entry
  tail call void @_ZN4cvc57context10ContextObj6updateEv(ptr noundef nonnull align 8 dereferenceable(40) %call)
  br label %_ZN4cvc57context11CDOhash_mapINS_8internal12NodeTemplateILb1EEEbSt4hashIS4_EEaSERKb.exit

_ZN4cvc57context11CDOhash_mapINS_8internal12NodeTemplateILb1EEEbSt4hashIS4_EEaSERKb.exit: ; preds = %entry, %if.then.i.i.i
  %second.i.i.i = getelementptr inbounds i8, ptr %call, i64 48
  store i8 1, ptr %second.i.i.i, align 8
  ret void
}